(dp0
S'inverse-kinematics'
p1
(dp2
S'successes'
p3
I4
sS'distribution'
p4
(lp5
I1
aI1
aI1
aI1
asS'overhead'
p6
F4.986205101013184
sS'calls'
p7
I82
ssS'sample-grasp'
p8
(dp9
g3
I76
sg4
(lp10
I1
aI1
aI1
aI1
aI1
aI1
aI1
aI1
aI1
aI1
aI1
aI1
aI1
aI1
aI1
aI1
aI1
aI1
aI1
aI1
aI1
aI1
aI1
aI1
aI1
aI1
aI1
aI1
aI1
aI1
aI1
aI1
aI1
aI1
aI1
aI1
aI1
aI1
aI1
aI1
aI1
aI1
aI1
aI1
aI1
aI1
aI1
aI1
aI1
aI1
aI1
aI1
aI1
aI1
aI1
aI1
aI1
aI1
aI1
aI1
aI1
aI1
aI1
aI1
aI1
aI1
aI1
aI1
aI1
aI1
aI1
aI1
aI1
aI1
aI1
aI1
asg6
F0.03527426719665527
sg7
I94
ssS'plan-holding-motion'
p11
(dp12
g3
I2
sg4
(lp13
I1
aI1
asg6
F0.07460808753967285
sg7
I2
ssS'test-cfree-traj-pose'
p14
(dp15
g3
I2
sg4
(lp16
I1
aI1
asg6
F0.0002980232238769531
sg7
I2
ssS'plan-free-motion'
p17
(dp18
g3
I4
sg4
(lp19
I1
aI1
aI1
aI1
asg6
F0.3652172088623047
sg7
I4
ssS'test-cfree-pose-pose'
p20
(dp21
g3
I0
sg4
(lp22
sg6
F0.0
sg7
I0
ssS'test-cfree-approach-pose'
p23
(dp24
g3
I0
sg4
(lp25
sg6
F0.0
sg7
I0
ssS'sample-pose'
p26
(dp27
g3
I6
sg4
(lp28
I1
aI1
aI1
aI1
aI1
aI1
asg6
F0.0049495697021484375
sg7
I6
ss.