(dp0
S'inverse-kinematics'
p1
(dp2
S'successes'
p3
I6
sS'distribution'
p4
(lp5
I1
aI1
aI1
aI1
aI1
aI1
asS'overhead'
p6
F174.82722568511963
sS'calls'
p7
I247
ssS'sample-grasp'
p8
(dp9
g3
I180
sg4
(lp10
I1
aI1
aI1
aI1
aI1
aI1
aI1
aI1
aI1
aI1
aI1
aI1
aI1
aI1
aI1
aI1
aI1
aI1
aI1
aI1
aI1
aI1
aI1
aI1
aI1
aI1
aI1
aI1
aI1
aI1
aI1
aI1
aI1
aI1
aI1
aI1
aI1
aI1
aI1
aI1
aI1
aI1
aI1
aI1
aI1
aI1
aI1
aI1
aI1
aI1
aI1
aI1
aI1
aI1
aI1
aI1
aI1
aI1
aI1
aI1
aI1
aI1
aI1
aI1
aI1
aI1
aI1
aI1
aI1
aI1
aI1
aI1
aI1
aI1
aI1
aI1
aI1
aI1
aI1
aI1
aI1
aI1
aI1
aI1
aI1
aI1
aI1
aI1
aI1
aI1
aI1
aI1
aI1
aI1
aI1
aI1
aI1
aI1
aI1
aI1
aI1
aI1
aI1
aI1
aI1
aI1
aI1
aI1
aI1
aI1
aI1
aI1
aI1
aI1
aI1
aI1
aI1
aI1
aI1
aI1
aI1
aI1
aI1
aI1
aI1
aI1
aI1
aI1
aI1
aI1
aI1
aI1
aI1
aI1
aI1
aI1
aI1
aI1
aI1
aI1
aI1
aI1
aI1
aI1
aI1
aI1
aI1
aI1
aI1
aI1
aI1
aI1
aI1
aI1
aI1
aI1
aI1
aI1
aI1
aI1
aI1
aI1
aI1
aI1
aI1
aI1
aI1
aI1
aI1
aI1
aI1
aI1
aI1
aI1
aI1
aI1
aI1
aI1
aI1
aI1
asg6
F584.482164144516
sg7
I181
ssS'plan-holding-motion'
p11
(dp12
g3
I2
sg4
(lp13
I1
aI1
asg6
F6.788180112838745
sg7
I2
ssS'test-cfree-traj-pose'
p14
(dp15
g3
I15
sg4
(lp16
I1
aI1
aI1
aI1
aI1
aI1
aI1
aI1
aI1
aI1
aI1
aI1
aI1
aI1
aI1
asg6
F0.006997585296630859
sg7
I15
ssS'plan-free-motion'
p17
(dp18
g3
I6
sg4
(lp19
I1
aI1
aI1
aI1
aI1
aI1
asg6
F7.544414043426514
sg7
I6
ssS'test-cfree-pose-pose'
p20
(dp21
g3
I6
sg4
(lp22
I1
aI1
aI1
aI1
aI1
aI1
asg6
F0.0026521682739257812
sg7
I6
ssS'test-cfree-approach-pose'
p23
(dp24
g3
I12
sg4
(lp25
I1
aI1
aI1
aI1
aI1
aI1
aI1
aI1
aI1
aI1
aI1
aI1
asg6
F0.0059092044830322266
sg7
I12
ssS'sample-pose'
p26
(dp27
g3
I21
sg4
(lp28
I1
aI1
aI1
aI1
aI1
aI1
aI1
aI1
aI1
aI1
aI1
aI1
aI1
aI1
aI1
aI1
aI1
aI1
aI1
aI1
aI1
asg6
F14.144583225250244
sg7
I21
ss.