(dp0
S'inverse-kinematics'
p1
(dp2
S'successes'
p3
I3
sS'distribution'
p4
(lp5
I1
aI1
aI1
asS'overhead'
p6
F0.034362077713012695
sS'calls'
p7
I3
ssS'sample-grasp'
p8
(dp9
g3
I1
sg4
(lp10
I1
asg6
F0.001377105712890625
sg7
I1
ssS'plan-holding-motion'
p11
(dp12
g3
I2
sg4
(lp13
I1
aI1
asg6
F0.07500886917114258
sg7
I2
ssS'test-cfree-traj-pose'
p14
(dp15
g3
I5
sg4
(lp16
I1
aI1
aI1
aI1
aI1
asg6
F0.0033388137817382812
sg7
I5
ssS'plan-free-motion'
p17
(dp18
g3
I2
sg4
(lp19
I1
aI1
asg6
F0.053540945053100586
sg7
I2
ssS'test-cfree-pose-pose'
p20
(dp21
g3
I2
sg4
(lp22
I1
aI1
asg6
F0.00013780593872070312
sg7
I2
ssS'test-cfree-approach-pose'
p23
(dp24
g3
I3
sg4
(lp25
I1
aI1
aI1
asg6
F0.0012156963348388672
sg7
I3
ssS'sample-pose'
p26
(dp27
g3
I2
sg4
(lp28
I1
aI1
asg6
F0.000736236572265625
sg7
I2
ss.